target datalayout = "e-m:e-p270:32:32-p271:32:32-p272:64:64-i64:64-i128:128-f80:128-n8:16:32:64-S128"
target triple = "x86_64-pc-linux-gnu"

@hf_zvt_card_number = internal global i32 0, align 4

; Function Attrs: inlinehint null_pointer_is_valid sspstrong uwtable
define internal i32 @dissect_zvt_card_number(ptr noundef %0, i32 noundef %1, ptr noundef %2, ptr noundef %3) #4 {
  %5 = alloca ptr, align 8
  %6 = alloca i32, align 4
  %7 = alloca ptr, align 8
  %8 = alloca ptr, align 8
  %9 = alloca i8, align 1
  %10 = alloca i8, align 1
  %11 = alloca i8, align 1
  store ptr %0, ptr %5, align 8
  store i32 %1, ptr %6, align 4
  store ptr %2, ptr %7, align 8
  store ptr %3, ptr %8, align 8
  call void @llvm.lifetime.start.p0(i64 1, ptr %9) #7
  %12 = load ptr, ptr %5, align 8
  %13 = load i32, ptr %6, align 4
  %14 = call zeroext i8 @tvb_get_uint8(ptr noundef %12, i32 noundef %13)
  %15 = zext i8 %14 to i32
  %16 = and i32 %15, 15
  %17 = trunc i32 %16 to i8
  store i8 %17, ptr %9, align 1
  call void @llvm.lifetime.start.p0(i64 1, ptr %10) #7
  %18 = load ptr, ptr %5, align 8
  %19 = load i32, ptr %6, align 4
  %20 = add i32 %19, 1
  %21 = call zeroext i8 @tvb_get_uint8(ptr noundef %18, i32 noundef %20)
  %22 = zext i8 %21 to i32
  %23 = and i32 %22, 15
  %24 = trunc i32 %23 to i8
  store i8 %24, ptr %10, align 1
  call void @llvm.lifetime.start.p0(i64 1, ptr %11) #7
  %25 = load i8, ptr %9, align 1
  %26 = zext i8 %25 to i32
  %27 = mul i32 %26, 10
  %28 = load i8, ptr %10, align 1
  %29 = zext i8 %28 to i32
  %30 = add i32 %27, %29
  %31 = trunc i32 %30 to i8
  store i8 %31, ptr %11, align 1
  %32 = load ptr, ptr %8, align 8
  %33 = load i32, ptr @hf_zvt_card_number, align 4
  %34 = load ptr, ptr %5, align 8
  %35 = load i32, ptr %6, align 4
  %36 = add i32 %35, 2
  %37 = load i8, ptr %11, align 1
  %38 = zext i8 %37 to i32
  %39 = call ptr @proto_tree_add_item(ptr noundef %32, i32 noundef %33, ptr noundef %34, i32 noundef %36, i32 noundef %38, i32 noundef 68)
  %40 = load i8, ptr %11, align 1
  %41 = zext i8 %40 to i32
  %42 = add i32 2, %41
  call void @llvm.lifetime.end.p0(i64 1, ptr %11) #7
  call void @llvm.lifetime.end.p0(i64 1, ptr %10) #7
  call void @llvm.lifetime.end.p0(i64 1, ptr %9) #7
  ret i32 %42
}