; Function Attrs: inlinehint null_pointer_is_valid sspstrong uwtable
define internal range(i32 2, 168) i32 @dissect_zvt_card_number(ptr noundef %0, i32 noundef %1, ptr readnone captures(none) %2, ptr noundef %3) #4 {
  %5 = tail call zeroext i8 @tvb_get_uint8(ptr noundef %0, i32 noundef %1)
  %6 = and i8 %5, 15
  %7 = add i32 %1, 1
  %8 = tail call zeroext i8 @tvb_get_uint8(ptr noundef %0, i32 noundef %7)
  %9 = and i8 %8, 15
  %narrow = mul nuw i8 %6, 10
  %10 = add nuw i8 %narrow, %9
  %11 = load i32, ptr @hf_zvt_card_number, align 4
  %12 = add i32 %1, 2
  %13 = zext i8 %10 to i32
  %14 = tail call ptr @proto_tree_add_item(ptr noundef %3, i32 noundef %11, ptr noundef %0, i32 noundef %12, i32 noundef %13, i32 noundef 68)
  %15 = add nuw nsw i32 %13, 2
  ret i32 %15
}